Archive member included because of file (symbol)

../../../../sys/libOS/eOS/libeOS-superH.a(print.o)
                              swradiolpf.o (sprint)
../../../../sys/libOS/eOS/libeOS-superH.a(memmove.o)
                              swradiolpf.o (memmove)
../../../../sys/libOS/eOS/libeOS-superH.a(strlen.o)
                              swradiolpf.o (strlen)
../../../../tools/tools-lib/superH/libm.a(s_sin.o)
                              swradiolpf.o (sin)
../../../../tools/tools-lib/superH/libm.a(s_cos.o)
                              swradiolpf.o (cos)
../../../../tools/tools-lib/superH/libm.a(e_rem_pio2.o)
                              ../../../../tools/tools-lib/superH/libm.a(s_sin.o) (__ieee754_rem_pio2)
../../../../tools/tools-lib/superH/libm.a(k_sin.o)
                              ../../../../tools/tools-lib/superH/libm.a(s_sin.o) (__kernel_sin)
../../../../tools/tools-lib/superH/libm.a(k_cos.o)
                              ../../../../tools/tools-lib/superH/libm.a(s_sin.o) (__kernel_cos)
../../../../tools/tools-lib/superH/libm.a(s_fabs.o)
                              ../../../../tools/tools-lib/superH/libm.a(e_rem_pio2.o) (fabs)
../../../../tools/tools-lib/superH/libm.a(k_rem_pio2.o)
                              ../../../../tools/tools-lib/superH/libm.a(e_rem_pio2.o) (__kernel_rem_pio2)
../../../../tools/tools-lib/superH/libm.a(s_scalbn.o)
                              ../../../../tools/tools-lib/superH/libm.a(k_rem_pio2.o) (scalbn)
../../../../tools/tools-lib/superH/libm.a(s_floor.o)
                              ../../../../tools/tools-lib/superH/libm.a(k_rem_pio2.o) (floor)
../../../../tools/tools-lib/superH/libm.a(s_copysign.o)
                              ../../../../tools/tools-lib/superH/libm.a(s_scalbn.o) (copysign)
../../../../tools/tools-lib/superH/libgcc.a(_ashiftrt.o)
                              devnet.o (__ashiftrt_r4_8)
../../../../tools/tools-lib/superH/libgcc.a(_si_to_df.o)
                              devnet.o (__floatsidf)
../../../../tools/tools-lib/superH/libgcc.a(_mul_df.o)
                              devnet.o (__muldf3)
../../../../tools/tools-lib/superH/libgcc.a(_usi_to_df.o)
                              devnet.o (__floatunsidf)
../../../../tools/tools-lib/superH/libgcc.a(_div_df.o)
                              devnet.o (__divdf3)
../../../../tools/tools-lib/superH/libgcc.a(_df_to_si.o)
                              devnet.o (__fixdfsi)
../../../../tools/tools-lib/superH/libgcc.a(_sf_to_df.o)
                              swradiolpf.o (__extendsfdf2)
../../../../tools/tools-lib/superH/libgcc.a(_df_to_sf.o)
                              swradiolpf.o (__truncdfsf2)
../../../../tools/tools-lib/superH/libgcc.a(_addsub_df.o)
                              swradiolpf.o (__subdf3)
../../../../tools/tools-lib/superH/libgcc.a(_mul_sf.o)
                              swradiolpf.o (__mulsf3)
../../../../tools/tools-lib/superH/libgcc.a(_si_to_sf.o)
                              swradiolpf.o (__floatsisf)
../../../../tools/tools-lib/superH/libgcc.a(_addsub_sf.o)
                              swradiolpf.o (__addsf3)
../../../../tools/tools-lib/superH/libgcc.a(_eq_sf.o)
                              swradiolpf.o (__eqsf2)
../../../../tools/tools-lib/superH/libgcc.a(_mulsi3.o)
                              swradiolpf.o (__mulsi3)
../../../../tools/tools-lib/superH/libgcc.a(_sdivsi3.o)
                              ../../../../sys/libOS/eOS/libeOS-superH.a(print.o) (__sdivsi3)
../../../../tools/tools-lib/superH/libgcc.a(_eq_df.o)
                              ../../../../tools/tools-lib/superH/libm.a(e_rem_pio2.o) (__eqdf2)
../../../../tools/tools-lib/superH/libgcc.a(_ashiftrt_n.o)
                              ../../../../tools/tools-lib/superH/libm.a(k_rem_pio2.o) (__ashrsi3)
../../../../tools/tools-lib/superH/libgcc.a(_ashiftlt.o)
                              ../../../../tools/tools-lib/superH/libm.a(k_rem_pio2.o) (__ashlsi3)
../../../../tools/tools-lib/superH/libgcc.a(_ge_df.o)
                              ../../../../tools/tools-lib/superH/libm.a(k_rem_pio2.o) (__gedf2)
../../../../tools/tools-lib/superH/libgcc.a(_gt_df.o)
                              ../../../../tools/tools-lib/superH/libm.a(s_floor.o) (__gtdf2)
../../../../tools/tools-lib/superH/libgcc.a(_lshiftrt.o)
                              ../../../../tools/tools-lib/superH/libm.a(s_floor.o) (__lshrsi3)
../../../../tools/tools-lib/superH/libgcc.a(_pack_df.o)
                              ../../../../tools/tools-lib/superH/libgcc.a(_si_to_df.o) (__pack_d)
../../../../tools/tools-lib/superH/libgcc.a(_clzsi2.o)
                              ../../../../tools/tools-lib/superH/libgcc.a(_si_to_df.o) (__clzsi2)
../../../../tools/tools-lib/superH/libgcc.a(_ashldi3.o)
                              ../../../../tools/tools-lib/superH/libgcc.a(_si_to_df.o) (__ashldi3)
../../../../tools/tools-lib/superH/libgcc.a(_unpack_df.o)
                              ../../../../tools/tools-lib/superH/libgcc.a(_mul_df.o) (__unpack_d)
../../../../tools/tools-lib/superH/libgcc.a(_muldi3.o)
                              ../../../../tools/tools-lib/superH/libgcc.a(_mul_df.o) (__muldi3)
../../../../tools/tools-lib/superH/libgcc.a(_thenan_df.o)
                              ../../../../tools/tools-lib/superH/libgcc.a(_mul_df.o) (__thenan_df)
../../../../tools/tools-lib/superH/libgcc.a(_lshrdi3.o)
                              ../../../../tools/tools-lib/superH/libgcc.a(_usi_to_df.o) (__lshrdi3)
../../../../tools/tools-lib/superH/libgcc.a(_unpack_sf.o)
                              ../../../../tools/tools-lib/superH/libgcc.a(_sf_to_df.o) (__unpack_f)
../../../../tools/tools-lib/superH/libgcc.a(_make_df.o)
                              ../../../../tools/tools-lib/superH/libgcc.a(_sf_to_df.o) (__make_dp)
../../../../tools/tools-lib/superH/libgcc.a(_make_sf.o)
                              ../../../../tools/tools-lib/superH/libgcc.a(_df_to_sf.o) (__make_fp)
../../../../tools/tools-lib/superH/libgcc.a(_pack_sf.o)
                              ../../../../tools/tools-lib/superH/libgcc.a(_mul_sf.o) (__pack_f)
../../../../tools/tools-lib/superH/libgcc.a(_thenan_sf.o)
                              ../../../../tools/tools-lib/superH/libgcc.a(_mul_sf.o) (__thenan_sf)
../../../../tools/tools-lib/superH/libgcc.a(_fpcmp_parts_sf.o)
                              ../../../../tools/tools-lib/superH/libgcc.a(_eq_sf.o) (__fpcmp_parts_f)
../../../../tools/tools-lib/superH/libgcc.a(_fpcmp_parts_df.o)
                              ../../../../tools/tools-lib/superH/libgcc.a(_eq_df.o) (__fpcmp_parts_d)
../../../../tools/tools-lib/superH/libgcc.a(_clz.o)
                              ../../../../tools/tools-lib/superH/libgcc.a(_clzsi2.o) (__clz_tab)

Allocating common symbols
Common symbol       size              file

fb1                 0x208             swradiolpf.o
REGSAVESTACK        0x24              swradiolpf.o
fb2                 0x208             swradiolpf.o

Memory Configuration

Name             Origin             Length             Attributes
*default*        0x0000000000000000 0xffffffffffffffff

Linker script and memory map

Address of section .text set to 0x8004000

.text           0x0000000008004000     0x50a0
                0x0000000008004000                _text = .
 *(.text)
 .text          0x0000000008004000      0x100 init.o
                0x000000000800403e                getssr
                0x000000000800404a                getgbr
                0x00000000080040e4                sleep
                0x0000000008004070                vec_stub_begin
                0x0000000008004038                getpsr
                0x0000000008004050                getvbr
                0x0000000008004062                getmach
                0x0000000008004020                spllo
                0x000000000800405c                getpr
                0x0000000008004044                getspc
                0x0000000008004032                spldone
                0x0000000008004068                getmacl
                0x0000000008004010                splhi
                0x00000000080040e4                vec_stub_end
                0x0000000008004056                getsp
 .text          0x0000000008004100      0x6b0 devnet.o
                0x0000000008004100                devnet_getcurifc
                0x000000000800421c                devnet_getncsense
                0x0000000008004150                devnet_getmaxfsz
                0x0000000008004350                devnet_xmit
                0x0000000008004194                devnet_getrxfsz
                0x00000000080042d0                devnet_ctl
                0x00000000080041d8                devnet_getncolls
                0x000000000800469c                devnet_framedelay
                0x00000000080042a4                devnet_recv
                0x0000000008004260                devnet_getspeed
                0x000000000800410c                devnet_getncr
 .text          0x00000000080047b0       0x50 devrtc.o
                0x00000000080047b0                devrtc_getusecs
 .text          0x0000000008004800       0x10 devexcp.o
                0x0000000008004800                devexcp_getintevt
 .text          0x0000000008004810       0x60 devrand.o
                0x000000000800485c                devrand_seed
                0x0000000008004810                devrand_getrand
 .text          0x0000000008004870       0xd0 misc.o
                0x00000000080048f8                xusleep
                0x00000000080048d8                pow10
                0x00000000080048a8                xudelay
                0x0000000008004894                devlogprintputc
                0x0000000008004870                sccputc
 .text          0x0000000008004940      0x850 swradiolpf.o
                0x0000000008004940                nic_hdlr
                0x0000000008004d58                startup
                0x0000000008004bcc                run_lpf
                0x0000000008004ca4                intr_hdlr
                0x00000000080049bc                init_lpf_data
 .text          0x0000000008005190       0xc0 swradio-common.o
                0x00000000080051f4                fb_ensure_writable
                0x0000000008005190                fb_compact
 .text          0x0000000008005250      0x620 ../../../../sys/libOS/eOS/libeOS-superH.a(print.o)
                0x0000000008005790                sprint
                0x00000000080057c8                fprint
                0x0000000008005800                lprint
                0x000000000800575c                snprint
                0x0000000008005838                print
 .text          0x0000000008005870       0x60 ../../../../sys/libOS/eOS/libeOS-superH.a(memmove.o)
                0x0000000008005870                memmove
 .text          0x00000000080058d0       0x20 ../../../../sys/libOS/eOS/libeOS-superH.a(strlen.o)
                0x00000000080058d0                strlen
 .text          0x00000000080058f0       0xd0 ../../../../tools/tools-lib/superH/libm.a(s_sin.o)
                0x00000000080058f0                sin
 .text          0x00000000080059c0       0xd0 ../../../../tools/tools-lib/superH/libm.a(s_cos.o)
                0x00000000080059c0                cos
 .text          0x0000000008005a90      0x650 ../../../../tools/tools-lib/superH/libm.a(e_rem_pio2.o)
                0x0000000008005a90                __ieee754_rem_pio2
 .text          0x00000000080060e0      0x1d0 ../../../../tools/tools-lib/superH/libm.a(k_sin.o)
                0x00000000080060e0                __kernel_sin
 .text          0x00000000080062b0      0x200 ../../../../tools/tools-lib/superH/libm.a(k_cos.o)
                0x00000000080062b0                __kernel_cos
 .text          0x00000000080064b0       0x20 ../../../../tools/tools-lib/superH/libm.a(s_fabs.o)
                0x00000000080064b0                fabs
 .text          0x00000000080064d0      0xa60 ../../../../tools/tools-lib/superH/libm.a(k_rem_pio2.o)
                0x00000000080064d0                __kernel_rem_pio2
 .text          0x0000000008006f30      0x160 ../../../../tools/tools-lib/superH/libm.a(s_scalbn.o)
                0x0000000008006f30                scalbn
 .text          0x0000000008007090      0x170 ../../../../tools/tools-lib/superH/libm.a(s_floor.o)
                0x0000000008007090                floor
 .text          0x0000000008007200       0x30 ../../../../tools/tools-lib/superH/libm.a(s_copysign.o)
                0x0000000008007200                copysign
 .text          0x0000000008007230       0x60 ../../../../tools/tools-lib/superH/libgcc.a(_ashiftrt.o)
                0x000000000800723c                __ashiftrt_r4_27
                0x0000000008007270                __ashiftrt_r4_6
                0x0000000008007260                __ashiftrt_r4_14
                0x0000000008007252                __ashiftrt_r4_19
                0x000000000800726a                __ashiftrt_r4_9
                0x000000000800727e                __ashiftrt_r4_0
                0x0000000008007230                __ashiftrt_r4_31
                0x000000000800723e                __ashiftrt_r4_26
                0x000000000800724c                __ashiftrt_r4_22
                0x0000000008007258                __ashiftrt_r4_16
                0x0000000008007264                __ashiftrt_r4_12
                0x0000000008007238                __ashiftrt_r4_29
                0x0000000008007256                __ashiftrt_r4_17
                0x0000000008007236                __ashiftrt_r4_30
                0x0000000008007272                __ashiftrt_r4_5
                0x000000000800726c                __ashiftrt_r4_8
                0x0000000008007230                __ashiftrt_r4_32
                0x0000000008007240                __ashiftrt_r4_25
                0x0000000008007278                __ashiftrt_r4_2
                0x0000000008007242                __ashiftrt_r4_24
                0x000000000800725e                __ashiftrt_r4_15
                0x0000000008007268                __ashiftrt_r4_10
                0x000000000800727a                __ashiftrt_r4_1
                0x000000000800723a                __ashiftrt_r4_28
                0x0000000008007250                __ashiftrt_r4_20
                0x000000000800726e                __ashiftrt_r4_7
                0x0000000008007262                __ashiftrt_r4_13
                0x0000000008007266                __ashiftrt_r4_11
                0x0000000008007274                __ashiftrt_r4_4
                0x000000000800724a                __ashiftrt_r4_23
                0x0000000008007254                __ashiftrt_r4_18
                0x000000000800724e                __ashiftrt_r4_21
                0x0000000008007276                __ashiftrt_r4_3
 .text          0x0000000008007290       0xa0 ../../../../tools/tools-lib/superH/libgcc.a(_si_to_df.o)
                0x0000000008007290                __floatsidf
 .text          0x0000000008007330      0x300 ../../../../tools/tools-lib/superH/libgcc.a(_mul_df.o)
                0x0000000008007330                __muldf3
 .text          0x0000000008007630       0xd0 ../../../../tools/tools-lib/superH/libgcc.a(_usi_to_df.o)
                0x0000000008007630                __floatunsidf
 .text          0x0000000008007700      0x190 ../../../../tools/tools-lib/superH/libgcc.a(_div_df.o)
                0x0000000008007700                __divdf3
 .text          0x0000000008007890       0x90 ../../../../tools/tools-lib/superH/libgcc.a(_df_to_si.o)
                0x0000000008007890                __fixdfsi
 .text          0x0000000008007920       0x50 ../../../../tools/tools-lib/superH/libgcc.a(_sf_to_df.o)
                0x0000000008007920                __extendsfdf2
 .text          0x0000000008007970       0x70 ../../../../tools/tools-lib/superH/libgcc.a(_df_to_sf.o)
                0x0000000008007970                __truncdfsf2
 .text          0x00000000080079e0      0x390 ../../../../tools/tools-lib/superH/libgcc.a(_addsub_df.o)
                0x0000000008007ca8                __subdf3
                0x0000000008007d10                __adddf3
 .text          0x0000000008007d70      0x190 ../../../../tools/tools-lib/superH/libgcc.a(_mul_sf.o)
                0x0000000008007d70                __mulsf3
 .text          0x0000000008007f00       0x90 ../../../../tools/tools-lib/superH/libgcc.a(_si_to_sf.o)
                0x0000000008007f00                __floatsisf
 .text          0x0000000008007f90      0x2a0 ../../../../tools/tools-lib/superH/libgcc.a(_addsub_sf.o)
                0x0000000008008170                __subsf3
                0x00000000080081d4                __addsf3
 .text          0x0000000008008230       0x60 ../../../../tools/tools-lib/superH/libgcc.a(_eq_sf.o)
                0x0000000008008230                __eqsf2
 .text          0x0000000008008290       0x30 ../../../../tools/tools-lib/superH/libgcc.a(_mulsi3.o)
                0x0000000008008290                __mulsi3
 .text          0x00000000080082c0       0xa0 ../../../../tools/tools-lib/superH/libgcc.a(_sdivsi3.o)
                0x00000000080082c0                __sdivsi3
 .text          0x0000000008008360       0x70 ../../../../tools/tools-lib/superH/libgcc.a(_eq_df.o)
                0x0000000008008360                __eqdf2
 .text          0x00000000080083d0       0x90 ../../../../tools/tools-lib/superH/libgcc.a(_ashiftrt_n.o)
                0x00000000080083d0                __ashrsi3
 .text          0x0000000008008460       0x90 ../../../../tools/tools-lib/superH/libgcc.a(_ashiftlt.o)
                0x0000000008008460                __ashlsi3
 .text          0x00000000080084f0       0x70 ../../../../tools/tools-lib/superH/libgcc.a(_ge_df.o)
                0x00000000080084f0                __gedf2
 .text          0x0000000008008560       0x70 ../../../../tools/tools-lib/superH/libgcc.a(_gt_df.o)
                0x0000000008008560                __gtdf2
 .text          0x00000000080085d0       0x90 ../../../../tools/tools-lib/superH/libgcc.a(_lshiftrt.o)
                0x00000000080085d0                __lshrsi3
 .text          0x0000000008008660      0x1f0 ../../../../tools/tools-lib/superH/libgcc.a(_pack_df.o)
                0x0000000008008660                __pack_d
 .text          0x0000000008008850       0xa0 ../../../../tools/tools-lib/superH/libgcc.a(_clzsi2.o)
                0x0000000008008850                __clzsi2
 .text          0x00000000080088f0       0x80 ../../../../tools/tools-lib/superH/libgcc.a(_ashldi3.o)
                0x00000000080088f0                __ashldi3
 .text          0x0000000008008970      0x100 ../../../../tools/tools-lib/superH/libgcc.a(_unpack_df.o)
                0x0000000008008970                __unpack_d
 .text          0x0000000008008a70       0xd0 ../../../../tools/tools-lib/superH/libgcc.a(_muldi3.o)
                0x0000000008008a70                __muldi3
 .text          0x0000000008008b40       0x20 ../../../../tools/tools-lib/superH/libgcc.a(_thenan_df.o)
                0x0000000008008b40                __thenan_df
 .text          0x0000000008008b60       0x80 ../../../../tools/tools-lib/superH/libgcc.a(_lshrdi3.o)
                0x0000000008008b60                __lshrdi3
 .text          0x0000000008008be0       0xb0 ../../../../tools/tools-lib/superH/libgcc.a(_unpack_sf.o)
                0x0000000008008be0                __unpack_f
 .text          0x0000000008008c90       0x40 ../../../../tools/tools-lib/superH/libgcc.a(_make_df.o)
                0x0000000008008c90                __make_dp
 .text          0x0000000008008cd0       0x30 ../../../../tools/tools-lib/superH/libgcc.a(_make_sf.o)
                0x0000000008008cd0                __make_fp
 .text          0x0000000008008d00      0x130 ../../../../tools/tools-lib/superH/libgcc.a(_pack_sf.o)
                0x0000000008008d00                __pack_f
 .text          0x0000000008008e30       0x10 ../../../../tools/tools-lib/superH/libgcc.a(_thenan_sf.o)
                0x0000000008008e30                __thenan_sf
 .text          0x0000000008008e40       0xa0 ../../../../tools/tools-lib/superH/libgcc.a(_fpcmp_parts_sf.o)
                0x0000000008008e40                __fpcmp_parts_f
 .text          0x0000000008008ee0       0xc0 ../../../../tools/tools-lib/superH/libgcc.a(_fpcmp_parts_df.o)
                0x0000000008008ee0                __fpcmp_parts_d
 .text          0x0000000008008fa0      0x100 ../../../../tools/tools-lib/superH/libgcc.a(_clz.o)
                0x0000000008008fa0                __clz_tab
 *(.strings)
                0x00000000080090a0                _etext = .

.data           0x00000000080090a0       0x10
                0x00000000080090a0                _data = .
 *(.data)
 .data          0x00000000080090a0       0x10 swradiolpf.o
                0x00000000080090a0                my_id
                0x00000000080090b0                _edata = .

.bss            0x00000000080090b0      0x458
                0x00000000080090b0                _bss = .
 *(.bss)
 .bss           0x00000000080090b0       0x10 swradiolpf.o
                0x00000000080090b8                syn_sent
                0x00000000080090b4                sample_flag
                0x00000000080090b0                done_flag
 *(COMMON)
 COMMON         0x00000000080090c0      0x448 swradiolpf.o
                0x00000000080090c0                fb1
                0x00000000080092d0                REGSAVESTACK
                0x0000000008009300                fb2
                0x0000000008009508                _ebss = .
                0x0000000008009508                _end = .
LOAD init.o
LOAD devnet.o
LOAD devrtc.o
LOAD devexcp.o
LOAD devrand.o
LOAD misc.o
LOAD swradiolpf.o
LOAD swradio-common.o
LOAD ../../../../sys/libOS/eOS/libeOS-superH.a
LOAD ../../../../tools/tools-lib/superH/libm.a
LOAD ../../../../tools/tools-lib/superH/libgcc.a
OUTPUT(swradiolpf coff-sh)

.comment        0x0000000008009510      0x640
 .comment       0x0000000008009510       0x20 devnet.o
 .comment       0x0000000008009530       0x20 devrtc.o
 .comment       0x0000000008009550       0x20 devexcp.o
 .comment       0x0000000008009570       0x20 devrand.o
 .comment       0x0000000008009590       0x20 misc.o
 .comment       0x00000000080095b0       0x20 swradiolpf.o
 .comment       0x00000000080095d0       0x20 swradio-common.o
 .comment       0x00000000080095f0       0x20 ../../../../sys/libOS/eOS/libeOS-superH.a(print.o)
 .comment       0x0000000008009610       0x20 ../../../../sys/libOS/eOS/libeOS-superH.a(memmove.o)
 .comment       0x0000000008009630       0x20 ../../../../sys/libOS/eOS/libeOS-superH.a(strlen.o)
 .comment       0x0000000008009650       0x20 ../../../../tools/tools-lib/superH/libm.a(s_sin.o)
 .comment       0x0000000008009670       0x20 ../../../../tools/tools-lib/superH/libm.a(s_cos.o)
 .comment       0x0000000008009690       0x20 ../../../../tools/tools-lib/superH/libm.a(e_rem_pio2.o)
 .comment       0x00000000080096b0       0x20 ../../../../tools/tools-lib/superH/libm.a(k_sin.o)
 .comment       0x00000000080096d0       0x20 ../../../../tools/tools-lib/superH/libm.a(k_cos.o)
 .comment       0x00000000080096f0       0x20 ../../../../tools/tools-lib/superH/libm.a(s_fabs.o)
 .comment       0x0000000008009710       0x20 ../../../../tools/tools-lib/superH/libm.a(k_rem_pio2.o)
 .comment       0x0000000008009730       0x20 ../../../../tools/tools-lib/superH/libm.a(s_scalbn.o)
 .comment       0x0000000008009750       0x20 ../../../../tools/tools-lib/superH/libm.a(s_floor.o)
 .comment       0x0000000008009770       0x20 ../../../../tools/tools-lib/superH/libm.a(s_copysign.o)
 .comment       0x0000000008009790       0x20 ../../../../tools/tools-lib/superH/libgcc.a(_si_to_df.o)
 .comment       0x00000000080097b0       0x20 ../../../../tools/tools-lib/superH/libgcc.a(_mul_df.o)
 .comment       0x00000000080097d0       0x20 ../../../../tools/tools-lib/superH/libgcc.a(_usi_to_df.o)
 .comment       0x00000000080097f0       0x20 ../../../../tools/tools-lib/superH/libgcc.a(_div_df.o)
 .comment       0x0000000008009810       0x20 ../../../../tools/tools-lib/superH/libgcc.a(_df_to_si.o)
 .comment       0x0000000008009830       0x20 ../../../../tools/tools-lib/superH/libgcc.a(_sf_to_df.o)
 .comment       0x0000000008009850       0x20 ../../../../tools/tools-lib/superH/libgcc.a(_df_to_sf.o)
 .comment       0x0000000008009870       0x20 ../../../../tools/tools-lib/superH/libgcc.a(_addsub_df.o)
 .comment       0x0000000008009890       0x20 ../../../../tools/tools-lib/superH/libgcc.a(_mul_sf.o)
 .comment       0x00000000080098b0       0x20 ../../../../tools/tools-lib/superH/libgcc.a(_si_to_sf.o)
 .comment       0x00000000080098d0       0x20 ../../../../tools/tools-lib/superH/libgcc.a(_addsub_sf.o)
 .comment       0x00000000080098f0       0x20 ../../../../tools/tools-lib/superH/libgcc.a(_eq_sf.o)
 .comment       0x0000000008009910       0x20 ../../../../tools/tools-lib/superH/libgcc.a(_eq_df.o)
 .comment       0x0000000008009930       0x20 ../../../../tools/tools-lib/superH/libgcc.a(_ge_df.o)
 .comment       0x0000000008009950       0x20 ../../../../tools/tools-lib/superH/libgcc.a(_gt_df.o)
 .comment       0x0000000008009970       0x20 ../../../../tools/tools-lib/superH/libgcc.a(_pack_df.o)
 .comment       0x0000000008009990       0x20 ../../../../tools/tools-lib/superH/libgcc.a(_clzsi2.o)
 .comment       0x00000000080099b0       0x20 ../../../../tools/tools-lib/superH/libgcc.a(_ashldi3.o)
 .comment       0x00000000080099d0       0x20 ../../../../tools/tools-lib/superH/libgcc.a(_unpack_df.o)
 .comment       0x00000000080099f0       0x20 ../../../../tools/tools-lib/superH/libgcc.a(_muldi3.o)
 .comment       0x0000000008009a10       0x20 ../../../../tools/tools-lib/superH/libgcc.a(_thenan_df.o)
 .comment       0x0000000008009a30       0x20 ../../../../tools/tools-lib/superH/libgcc.a(_lshrdi3.o)
 .comment       0x0000000008009a50       0x20 ../../../../tools/tools-lib/superH/libgcc.a(_unpack_sf.o)
 .comment       0x0000000008009a70       0x20 ../../../../tools/tools-lib/superH/libgcc.a(_make_df.o)
 .comment       0x0000000008009a90       0x20 ../../../../tools/tools-lib/superH/libgcc.a(_make_sf.o)
 .comment       0x0000000008009ab0       0x20 ../../../../tools/tools-lib/superH/libgcc.a(_pack_sf.o)
 .comment       0x0000000008009ad0       0x20 ../../../../tools/tools-lib/superH/libgcc.a(_thenan_sf.o)
 .comment       0x0000000008009af0       0x20 ../../../../tools/tools-lib/superH/libgcc.a(_fpcmp_parts_sf.o)
 .comment       0x0000000008009b10       0x20 ../../../../tools/tools-lib/superH/libgcc.a(_fpcmp_parts_df.o)
 .comment       0x0000000008009b30       0x20 ../../../../tools/tools-lib/superH/libgcc.a(_clz.o)
