Archive member included because of file (symbol)

../../../../../tools/tools-lib/superH/libc.a(errno.o)
                              init.o (__errno)
../../../../../tools/tools-lib/superH/libc.a(impure.o)
                              fftmisc.o (_impure_ptr)
../../../../../tools/tools-lib/superH/libc.a(fprintf.o)
                              fftmisc.o (fprintf)
../../../../../tools/tools-lib/superH/libc.a(exit.o)
                              fftmisc.o (exit)
../../../../../tools/tools-lib/superH/libc.a(printf.o)
                              main.o (printf)
../../../../../tools/tools-lib/superH/libc.a(strcat.o)
                              main.o (strcat)
../../../../../tools/tools-lib/superH/libc.a(fopen.o)
                              main.o (fopen)
../../../../../tools/tools-lib/superH/libc.a(fclose.o)
                              main.o (fclose)
../../../../../tools/tools-lib/superH/libc.a(memset.o)
                              main.o (memset)
../../../../../tools/tools-lib/superH/libc.a(vfprintf.o)
                              ../../../../../tools/tools-lib/superH/libc.a(fprintf.o) (vfprintf)
../../../../../tools/tools-lib/superH/libc.a(syscalls.o)
                              ../../../../../tools/tools-lib/superH/libc.a(exit.o) (_exit)
../../../../../tools/tools-lib/superH/libc.a(flags.o)
                              ../../../../../tools/tools-lib/superH/libc.a(fopen.o) (__sflags)
../../../../../tools/tools-lib/superH/libc.a(findfp.o)
                              ../../../../../tools/tools-lib/superH/libc.a(fclose.o) (__sinit)
../../../../../tools/tools-lib/superH/libc.a(openr.o)
                              ../../../../../tools/tools-lib/superH/libc.a(fopen.o) (_open_r)
../../../../../tools/tools-lib/superH/libc.a(stdio.o)
                              ../../../../../tools/tools-lib/superH/libc.a(fopen.o) (__sclose)
../../../../../tools/tools-lib/superH/libc.a(fseek.o)
                              ../../../../../tools/tools-lib/superH/libc.a(fopen.o) (fseek)
../../../../../tools/tools-lib/superH/libc.a(fflush.o)
                              ../../../../../tools/tools-lib/superH/libc.a(fclose.o) (fflush)
../../../../../tools/tools-lib/superH/libc.a(freer.o)
                              ../../../../../tools/tools-lib/superH/libc.a(fclose.o) (_free_r)
../../../../../tools/tools-lib/superH/libc.a(fvwrite.o)
                              ../../../../../tools/tools-lib/superH/libc.a(vfprintf.o) (__sfvwrite)
../../../../../tools/tools-lib/superH/libc.a(locale.o)
                              ../../../../../tools/tools-lib/superH/libc.a(vfprintf.o) (localeconv)
../../../../../tools/tools-lib/superH/libc.a(wsetup.o)
                              ../../../../../tools/tools-lib/superH/libc.a(vfprintf.o) (__swsetup)
../../../../../tools/tools-lib/superH/libc.a(mbtowc_r.o)
                              ../../../../../tools/tools-lib/superH/libc.a(vfprintf.o) (_mbtowc_r)
../../../../../tools/tools-lib/superH/libc.a(s_isinf.o)
                              ../../../../../tools/tools-lib/superH/libc.a(vfprintf.o) (isinf)
../../../../../tools/tools-lib/superH/libc.a(s_isnan.o)
                              ../../../../../tools/tools-lib/superH/libc.a(vfprintf.o) (isnan)
../../../../../tools/tools-lib/superH/libc.a(dtoa.o)
                              ../../../../../tools/tools-lib/superH/libc.a(vfprintf.o) (_dtoa_r)
../../../../../tools/tools-lib/superH/libc.a(memchr.o)
                              ../../../../../tools/tools-lib/superH/libc.a(vfprintf.o) (memchr)
../../../../../tools/tools-lib/superH/libc.a(strlen.o)
                              ../../../../../tools/tools-lib/superH/libc.a(vfprintf.o) (strlen)
../../../../../tools/tools-lib/superH/libc.a(sbrkr.o)
                              ../../../../../tools/tools-lib/superH/libc.a(freer.o) (_sbrk_r)
../../../../../tools/tools-lib/superH/libc.a(trap.o)
                              ../../../../../tools/tools-lib/superH/libc.a(syscalls.o) (__trap34)
../../../../../tools/tools-lib/superH/libc.a(abort.o)
                              ../../../../../tools/tools-lib/superH/libc.a(syscalls.o) (abort)
../../../../../tools/tools-lib/superH/libc.a(fwalk.o)
                              ../../../../../tools/tools-lib/superH/libc.a(findfp.o) (_fwalk)
../../../../../tools/tools-lib/superH/libc.a(mallocr.o)
                              ../../../../../tools/tools-lib/superH/libc.a(findfp.o) (_malloc_r)
../../../../../tools/tools-lib/superH/libc.a(closer.o)
                              ../../../../../tools/tools-lib/superH/libc.a(stdio.o) (_close_r)
../../../../../tools/tools-lib/superH/libc.a(lseekr.o)
                              ../../../../../tools/tools-lib/superH/libc.a(stdio.o) (_lseek_r)
../../../../../tools/tools-lib/superH/libc.a(writer.o)
                              ../../../../../tools/tools-lib/superH/libc.a(stdio.o) (_write_r)
../../../../../tools/tools-lib/superH/libc.a(readr.o)
                              ../../../../../tools/tools-lib/superH/libc.a(stdio.o) (_read_r)
../../../../../tools/tools-lib/superH/libc.a(makebuf.o)
                              ../../../../../tools/tools-lib/superH/libc.a(fseek.o) (__smakebuf)
../../../../../tools/tools-lib/superH/libc.a(fstatr.o)
                              ../../../../../tools/tools-lib/superH/libc.a(fseek.o) (_fstat_r)
../../../../../tools/tools-lib/superH/libc.a(refill.o)
                              ../../../../../tools/tools-lib/superH/libc.a(fseek.o) (__srefill)
../../../../../tools/tools-lib/superH/libc.a(mlock.o)
                              ../../../../../tools/tools-lib/superH/libc.a(freer.o) (__malloc_lock)
../../../../../tools/tools-lib/superH/libc.a(memmove.o)
                              ../../../../../tools/tools-lib/superH/libc.a(fvwrite.o) (memmove)
../../../../../tools/tools-lib/superH/libc.a(strcmp.o)
                              ../../../../../tools/tools-lib/superH/libc.a(locale.o) (strcmp)
../../../../../tools/tools-lib/superH/libc.a(mprec.o)
                              ../../../../../tools/tools-lib/superH/libc.a(dtoa.o) (_Bfree)
../../../../../tools/tools-lib/superH/libc.a(memcpy.o)
                              ../../../../../tools/tools-lib/superH/libc.a(dtoa.o) (memcpy)
../../../../../tools/tools-lib/superH/libc.a(signal.o)
                              ../../../../../tools/tools-lib/superH/libc.a(abort.o) (raise)
../../../../../tools/tools-lib/superH/libc.a(callocr.o)
                              ../../../../../tools/tools-lib/superH/libc.a(mprec.o) (_calloc_r)
../../../../../tools/tools-lib/superH/libc.a(signalr.o)
                              ../../../../../tools/tools-lib/superH/libc.a(signal.o) (_getpid_r)
../../../../../tools/tools-lib/superH/libm.a(s_sin.o)
                              fourierf.o (sin)
../../../../../tools/tools-lib/superH/libm.a(s_cos.o)
                              fourierf.o (cos)
../../../../../tools/tools-lib/superH/libm.a(s_fabs.o)
                              main.o (fabs)
../../../../../tools/tools-lib/superH/libm.a(w_sqrt.o)
                              main.o (sqrt)
../../../../../tools/tools-lib/superH/libm.a(e_rem_pio2.o)
                              ../../../../../tools/tools-lib/superH/libm.a(s_sin.o) (__ieee754_rem_pio2)
../../../../../tools/tools-lib/superH/libm.a(k_sin.o)
                              ../../../../../tools/tools-lib/superH/libm.a(s_sin.o) (__kernel_sin)
../../../../../tools/tools-lib/superH/libm.a(k_cos.o)
                              ../../../../../tools/tools-lib/superH/libm.a(s_sin.o) (__kernel_cos)
../../../../../tools/tools-lib/superH/libm.a(e_sqrt.o)
                              ../../../../../tools/tools-lib/superH/libm.a(w_sqrt.o) (__ieee754_sqrt)
../../../../../tools/tools-lib/superH/libm.a(s_lib_ver.o)
                              ../../../../../tools/tools-lib/superH/libm.a(w_sqrt.o) (__fdlib_version)
../../../../../tools/tools-lib/superH/libm.a(s_matherr.o)
                              ../../../../../tools/tools-lib/superH/libm.a(w_sqrt.o) (matherr)
../../../../../tools/tools-lib/superH/libm.a(k_rem_pio2.o)
                              ../../../../../tools/tools-lib/superH/libm.a(e_rem_pio2.o) (__kernel_rem_pio2)
../../../../../tools/tools-lib/superH/libm.a(s_scalbn.o)
                              ../../../../../tools/tools-lib/superH/libm.a(k_rem_pio2.o) (scalbn)
../../../../../tools/tools-lib/superH/libm.a(s_floor.o)
                              ../../../../../tools/tools-lib/superH/libm.a(k_rem_pio2.o) (floor)
../../../../../tools/tools-lib/superH/libm.a(s_copysign.o)
                              ../../../../../tools/tools-lib/superH/libm.a(s_scalbn.o) (copysign)
../../../../../tools/tools-lib/superH/libgcc.a(_ashiftlt.o)
                              fftmisc.o (__ashlsi3)
../../../../../tools/tools-lib/superH/libgcc.a(_usi_to_df.o)
                              fftmisc.o (__floatunsidf)
../../../../../tools/tools-lib/superH/libgcc.a(_div_df.o)
                              fftmisc.o (__divdf3)
../../../../../tools/tools-lib/superH/libgcc.a(_mul_df.o)
                              fourierf.o (__muldf3)
../../../../../tools/tools-lib/superH/libgcc.a(_addsub_df.o)
                              fourierf.o (__subdf3)
../../../../../tools/tools-lib/superH/libgcc.a(_sf_to_df.o)
                              fourierf.o (__extendsfdf2)
../../../../../tools/tools-lib/superH/libgcc.a(_df_to_sf.o)
                              fourierf.o (__truncdfsf2)
../../../../../tools/tools-lib/superH/libgcc.a(_si_to_df.o)
                              main.o (__floatsidf)
../../../../../tools/tools-lib/superH/libgcc.a(_lt_df.o)
                              ../../../../../tools/tools-lib/superH/libc.a(vfprintf.o) (__ltdf2)
../../../../../tools/tools-lib/superH/libgcc.a(_ne_df.o)
                              ../../../../../tools/tools-lib/superH/libc.a(vfprintf.o) (__nedf2)
../../../../../tools/tools-lib/superH/libgcc.a(_eq_df.o)
                              ../../../../../tools/tools-lib/superH/libc.a(vfprintf.o) (__eqdf2)
../../../../../tools/tools-lib/superH/libgcc.a(_sdivsi3.o)
                              ../../../../../tools/tools-lib/superH/libc.a(vfprintf.o) (__sdivsi3)
../../../../../tools/tools-lib/superH/libgcc.a(_udivsi3.o)
                              ../../../../../tools/tools-lib/superH/libc.a(vfprintf.o) (__udivsi3)
../../../../../tools/tools-lib/superH/libgcc.a(_mulsi3.o)
                              ../../../../../tools/tools-lib/superH/libc.a(dtoa.o) (__mulsi3)
../../../../../tools/tools-lib/superH/libgcc.a(_lshiftrt.o)
                              ../../../../../tools/tools-lib/superH/libc.a(dtoa.o) (__lshrsi3)
../../../../../tools/tools-lib/superH/libgcc.a(_df_to_si.o)
                              ../../../../../tools/tools-lib/superH/libc.a(dtoa.o) (__fixdfsi)
../../../../../tools/tools-lib/superH/libgcc.a(_gt_df.o)
                              ../../../../../tools/tools-lib/superH/libc.a(dtoa.o) (__gtdf2)
../../../../../tools/tools-lib/superH/libgcc.a(_ge_df.o)
                              ../../../../../tools/tools-lib/superH/libc.a(dtoa.o) (__gedf2)
../../../../../tools/tools-lib/superH/libgcc.a(_ashiftrt.o)
                              ../../../../../tools/tools-lib/superH/libc.a(mprec.o) (__ashiftrt_r4_20)
../../../../../tools/tools-lib/superH/libgcc.a(_ashiftrt_n.o)
                              ../../../../../tools/tools-lib/superH/libc.a(mprec.o) (__ashrsi3)
../../../../../tools/tools-lib/superH/libgcc.a(_pack_df.o)
                              ../../../../../tools/tools-lib/superH/libgcc.a(_usi_to_df.o) (__pack_d)
../../../../../tools/tools-lib/superH/libgcc.a(_clzsi2.o)
                              ../../../../../tools/tools-lib/superH/libgcc.a(_usi_to_df.o) (__clzsi2)
../../../../../tools/tools-lib/superH/libgcc.a(_ashldi3.o)
                              ../../../../../tools/tools-lib/superH/libgcc.a(_usi_to_df.o) (__ashldi3)
../../../../../tools/tools-lib/superH/libgcc.a(_lshrdi3.o)
                              ../../../../../tools/tools-lib/superH/libgcc.a(_usi_to_df.o) (__lshrdi3)
../../../../../tools/tools-lib/superH/libgcc.a(_unpack_df.o)
                              ../../../../../tools/tools-lib/superH/libgcc.a(_div_df.o) (__unpack_d)
../../../../../tools/tools-lib/superH/libgcc.a(_thenan_df.o)
                              ../../../../../tools/tools-lib/superH/libgcc.a(_div_df.o) (__thenan_df)
../../../../../tools/tools-lib/superH/libgcc.a(_muldi3.o)
                              ../../../../../tools/tools-lib/superH/libgcc.a(_mul_df.o) (__muldi3)
../../../../../tools/tools-lib/superH/libgcc.a(_unpack_sf.o)
                              ../../../../../tools/tools-lib/superH/libgcc.a(_sf_to_df.o) (__unpack_f)
../../../../../tools/tools-lib/superH/libgcc.a(_make_df.o)
                              ../../../../../tools/tools-lib/superH/libgcc.a(_sf_to_df.o) (__make_dp)
../../../../../tools/tools-lib/superH/libgcc.a(_make_sf.o)
                              ../../../../../tools/tools-lib/superH/libgcc.a(_df_to_sf.o) (__make_fp)
../../../../../tools/tools-lib/superH/libgcc.a(_fpcmp_parts_df.o)
                              ../../../../../tools/tools-lib/superH/libgcc.a(_lt_df.o) (__fpcmp_parts_d)
../../../../../tools/tools-lib/superH/libgcc.a(_clz.o)
                              ../../../../../tools/tools-lib/superH/libgcc.a(_clzsi2.o) (__clz_tab)
../../../../../tools/tools-lib/superH/libgcc.a(_pack_sf.o)
                              ../../../../../tools/tools-lib/superH/libgcc.a(_make_sf.o) (__pack_f)

Allocating common symbols
Common symbol       size              file

errno               0x4               ../../../../../tools/tools-lib/superH/libc.a(syscalls.o)

Memory Configuration

Name             Origin             Length             Attributes
*default*        0x0000000000000000 0xffffffffffffffff

Linker script and memory map

Address of section .text set to 0x8004000

.text           0x0000000008004000     0x9880
                0x0000000008004000                _text = .
 *(.text)
 .text          0x0000000008004000       0x20 init.o
 .text          0x0000000008004020      0x2c0 fftmisc.o
                0x00000000080040ba                NumberOfBitsNeeded
                0x0000000008004020                IsPowerOfTwo
                0x00000000080041e4                Index_to_frequency
                0x0000000008004160                ReverseBits
 .text          0x00000000080042e0      0xa00 fourierf.o
                0x00000000080043ac                fft_float
 .text          0x0000000008004ce0      0x460 main.o
                0x0000000008004f34                startup
                0x0000000008004d4e                create_marks_csv
 .text          0x0000000008005140       0x20 ../../../../../tools/tools-lib/superH/libc.a(errno.o)
                0x0000000008005140                __errno
 .text          0x0000000008005160       0x10 ../../../../../tools/tools-lib/superH/libc.a(impure.o)
 .text          0x0000000008005170       0x30 ../../../../../tools/tools-lib/superH/libc.a(fprintf.o)
                0x0000000008005170                fprintf
 .text          0x00000000080051a0       0x60 ../../../../../tools/tools-lib/superH/libc.a(exit.o)
                0x00000000080051a0                exit
 .text          0x0000000008005200       0x80 ../../../../../tools/tools-lib/superH/libc.a(printf.o)
                0x0000000008005244                _printf_r
                0x0000000008005200                printf
 .text          0x0000000008005280       0x30 ../../../../../tools/tools-lib/superH/libc.a(strcat.o)
                0x0000000008005280                strcat
 .text          0x00000000080052b0       0xe0 ../../../../../tools/tools-lib/superH/libc.a(fopen.o)
                0x00000000080052b0                _fopen_r
                0x0000000008005368                fopen
 .text          0x0000000008005390       0xd0 ../../../../../tools/tools-lib/superH/libc.a(fclose.o)
                0x0000000008005390                fclose
 .text          0x0000000008005460       0x40 ../../../../../tools/tools-lib/superH/libc.a(memset.o)
                0x0000000008005460                memset
 .text          0x00000000080054a0     0x1280 ../../../../../tools/tools-lib/superH/libc.a(vfprintf.o)
                0x0000000008005582                _vfprintf_r
                0x00000000080054d0                vfprintf
 .text          0x0000000008006720      0x280 ../../../../../tools/tools-lib/superH/libc.a(syscalls.o)
                0x0000000008006864                _exit
                0x0000000008006756                _getpid
                0x00000000080067dc                _utime
                0x00000000080068cc                _write
                0x0000000008006904                _read
                0x000000000800673e                _unlink
                0x0000000008006898                _open
                0x000000000800682c                _stat
                0x000000000800674a                isatty
                0x00000000080067b4                _wait
                0x0000000008006848                _kill
                0x0000000008006814                _chmod
                0x0000000008006780                _execv
                0x0000000008006798                _execve
                0x0000000008006720                _link
                0x0000000008006762                _raise
                0x000000000800687c                _creat
                0x000000000800676c                _pipe
                0x00000000080067f8                _chown
                0x00000000080068e8                _lseek
                0x00000000080068b4                _close
                0x000000000800672c                _fstat
                0x00000000080067c8                _fork
                0x000000000800693a                _sbrk
 .text          0x00000000080069a0       0x60 ../../../../../tools/tools-lib/superH/libc.a(flags.o)
                0x00000000080069a0                __sflags
 .text          0x0000000008006a00      0x1e0 ../../../../../tools/tools-lib/superH/libc.a(findfp.o)
                0x0000000008006b40                __sfp
                0x0000000008006a48                __sinit
                0x0000000008006ad0                _cleanup
                0x0000000008006ab8                _cleanup_r
                0x0000000008006ae8                __sfmoreglue
 .text          0x0000000008006be0       0x40 ../../../../../tools/tools-lib/superH/libc.a(openr.o)
                0x0000000008006be0                _open_r
 .text          0x0000000008006c20      0x120 ../../../../../tools/tools-lib/superH/libc.a(stdio.o)
                0x0000000008006c8c                __swrite
                0x0000000008006c20                __sclose
                0x0000000008006cf4                __sread
                0x0000000008006c3c                __sseek
 .text          0x0000000008006d40      0x300 ../../../../../tools/tools-lib/superH/libc.a(fseek.o)
                0x0000000008006d40                fseek
 .text          0x0000000008007040       0xc0 ../../../../../tools/tools-lib/superH/libc.a(fflush.o)
                0x0000000008007040                fflush
 .text          0x0000000008007100      0x2d0 ../../../../../tools/tools-lib/superH/libc.a(freer.o)
                0x0000000008007100                _malloc_trim_r
                0x00000000080071c8                _free_r
 .text          0x00000000080073d0      0x240 ../../../../../tools/tools-lib/superH/libc.a(fvwrite.o)
                0x00000000080073d0                __sfvwrite
 .text          0x0000000008007610       0xd0 ../../../../../tools/tools-lib/superH/libc.a(locale.o)
                0x000000000800767c                setlocale
                0x0000000008007626                _setlocale_r
                0x000000000800769c                localeconv
                0x0000000008007610                _localeconv_r
 .text          0x00000000080076e0       0xd0 ../../../../../tools/tools-lib/superH/libc.a(wsetup.o)
                0x00000000080076e0                __swsetup
 .text          0x00000000080077b0       0x40 ../../../../../tools/tools-lib/superH/libc.a(mbtowc_r.o)
                0x00000000080077b0                _mbtowc_r
 .text          0x00000000080077f0       0x30 ../../../../../tools/tools-lib/superH/libc.a(s_isinf.o)
                0x00000000080077f0                isinf
 .text          0x0000000008007820       0x30 ../../../../../tools/tools-lib/superH/libc.a(s_isnan.o)
                0x0000000008007820                isnan
 .text          0x0000000008007850     0x1020 ../../../../../tools/tools-lib/superH/libc.a(dtoa.o)
                0x00000000080079ea                _dtoa_r
 .text          0x0000000008008870       0x30 ../../../../../tools/tools-lib/superH/libc.a(memchr.o)
                0x0000000008008870                memchr
 .text          0x00000000080088a0       0x20 ../../../../../tools/tools-lib/superH/libc.a(strlen.o)
                0x00000000080088a0                strlen
 .text          0x00000000080088c0       0x40 ../../../../../tools/tools-lib/superH/libc.a(sbrkr.o)
                0x00000000080088c0                _sbrk_r
 .text          0x0000000008008900       0x20 ../../../../../tools/tools-lib/superH/libc.a(trap.o)
                0x0000000008008900                __trap34
 .text          0x0000000008008920       0x20 ../../../../../tools/tools-lib/superH/libc.a(abort.o)
                0x0000000008008920                abort
 .text          0x0000000008008940       0x60 ../../../../../tools/tools-lib/superH/libc.a(fwalk.o)
                0x0000000008008940                _fwalk
 .text          0x00000000080089a0      0x4f0 ../../../../../tools/tools-lib/superH/libc.a(mallocr.o)
                0x00000000080089a0                _malloc_r
 .text          0x0000000008008e90       0x40 ../../../../../tools/tools-lib/superH/libc.a(closer.o)
                0x0000000008008e90                _close_r
 .text          0x0000000008008ed0       0x40 ../../../../../tools/tools-lib/superH/libc.a(lseekr.o)
                0x0000000008008ed0                _lseek_r
 .text          0x0000000008008f10       0x40 ../../../../../tools/tools-lib/superH/libc.a(writer.o)
                0x0000000008008f10                _write_r
 .text          0x0000000008008f50       0x40 ../../../../../tools/tools-lib/superH/libc.a(readr.o)
                0x0000000008008f50                _read_r
 .text          0x0000000008008f90      0x110 ../../../../../tools/tools-lib/superH/libc.a(makebuf.o)
                0x0000000008008f90                __smakebuf
 .text          0x00000000080090a0       0x40 ../../../../../tools/tools-lib/superH/libc.a(fstatr.o)
                0x00000000080090a0                _fstat_r
 .text          0x00000000080090e0      0x140 ../../../../../tools/tools-lib/superH/libc.a(refill.o)
                0x0000000008009104                __srefill
 .text          0x0000000008009220       0x20 ../../../../../tools/tools-lib/superH/libc.a(mlock.o)
                0x0000000008009220                __malloc_lock
                0x000000000800922a                __malloc_unlock
 .text          0x0000000008009240       0x50 ../../../../../tools/tools-lib/superH/libc.a(memmove.o)
                0x0000000008009240                memmove
 .text          0x0000000008009290       0x30 ../../../../../tools/tools-lib/superH/libc.a(strcmp.o)
                0x0000000008009290                strcmp
 .text          0x00000000080092c0      0xbe0 ../../../../../tools/tools-lib/superH/libc.a(mprec.o)
                0x00000000080093b6                __mcmp
                0x000000000800955c                _ratio
                0x0000000008009b10                _i2b
                0x0000000008009464                _b2d
                0x0000000008009cb8                _s2b
                0x00000000080092de                _hi0bits
                0x0000000008009bf8                _pow5mult
                0x00000000080097d4                __mdiff
                0x00000000080098c4                _lshift
                0x00000000080099a0                _multiply
                0x00000000080096c4                _d2b
                0x000000000800963c                _Balloc
                0x0000000008009e60                __mprec_tinytens
                0x00000000080095dc                _mprec_log10
                0x0000000008009e38                __mprec_bigtens
                0x00000000080093f0                _ulp
                0x00000000080092c0                _Bfree
                0x0000000008009d70                __mprec_tens
                0x0000000008009338                _lo0bits
                0x0000000008009b34                _multadd
 .text          0x0000000008009ea0       0xa0 ../../../../../tools/tools-lib/superH/libc.a(memcpy.o)
                0x0000000008009ea0                memcpy
 .text          0x0000000008009f40      0x210 ../../../../../tools/tools-lib/superH/libc.a(signal.o)
                0x000000000800a020                _raise_r
                0x000000000800a004                __sigtramp
                0x000000000800a0b4                raise
                0x0000000008009f88                _init_signal
                0x0000000008009fa0                __sigtramp_r
                0x000000000800a128                signal
                0x000000000800a0d0                _signal_r
                0x0000000008009f40                _init_signal_r
 .text          0x000000000800a150       0x90 ../../../../../tools/tools-lib/superH/libc.a(callocr.o)
                0x000000000800a150                _calloc_r
 .text          0x000000000800a1e0       0x50 ../../../../../tools/tools-lib/superH/libc.a(signalr.o)
                0x000000000800a1e0                _getpid_r
                0x000000000800a1f0                _kill_r
 .text          0x000000000800a230       0xd0 ../../../../../tools/tools-lib/superH/libm.a(s_sin.o)
                0x000000000800a230                sin
 .text          0x000000000800a300       0xd0 ../../../../../tools/tools-lib/superH/libm.a(s_cos.o)
                0x000000000800a300                cos
 .text          0x000000000800a3d0       0x20 ../../../../../tools/tools-lib/superH/libm.a(s_fabs.o)
                0x000000000800a3d0                fabs
 .text          0x000000000800a3f0      0x100 ../../../../../tools/tools-lib/superH/libm.a(w_sqrt.o)
                0x000000000800a3f6                sqrt
 .text          0x000000000800a4f0      0x650 ../../../../../tools/tools-lib/superH/libm.a(e_rem_pio2.o)
                0x000000000800a4f0                __ieee754_rem_pio2
 .text          0x000000000800ab40      0x1d0 ../../../../../tools/tools-lib/superH/libm.a(k_sin.o)
                0x000000000800ab40                __kernel_sin
 .text          0x000000000800ad10      0x200 ../../../../../tools/tools-lib/superH/libm.a(k_cos.o)
                0x000000000800ad10                __kernel_cos
 .text          0x000000000800af10      0x200 ../../../../../tools/tools-lib/superH/libm.a(e_sqrt.o)
                0x000000000800af10                __ieee754_sqrt
 .text          0x000000000800b110       0x10 ../../../../../tools/tools-lib/superH/libm.a(s_lib_ver.o)
                0x000000000800b110                __fdlib_version
 .text          0x000000000800b120       0x10 ../../../../../tools/tools-lib/superH/libm.a(s_matherr.o)
                0x000000000800b120                matherr
 .text          0x000000000800b130      0xa60 ../../../../../tools/tools-lib/superH/libm.a(k_rem_pio2.o)
                0x000000000800b130                __kernel_rem_pio2
 .text          0x000000000800bb90      0x160 ../../../../../tools/tools-lib/superH/libm.a(s_scalbn.o)
                0x000000000800bb90                scalbn
 .text          0x000000000800bcf0      0x170 ../../../../../tools/tools-lib/superH/libm.a(s_floor.o)
                0x000000000800bcf0                floor
 .text          0x000000000800be60       0x30 ../../../../../tools/tools-lib/superH/libm.a(s_copysign.o)
                0x000000000800be60                copysign
 .text          0x000000000800be90       0x90 ../../../../../tools/tools-lib/superH/libgcc.a(_ashiftlt.o)
                0x000000000800be90                __ashlsi3
 .text          0x000000000800bf20       0xd0 ../../../../../tools/tools-lib/superH/libgcc.a(_usi_to_df.o)
                0x000000000800bf20                __floatunsidf
 .text          0x000000000800bff0      0x190 ../../../../../tools/tools-lib/superH/libgcc.a(_div_df.o)
                0x000000000800bff0                __divdf3
 .text          0x000000000800c180      0x300 ../../../../../tools/tools-lib/superH/libgcc.a(_mul_df.o)
                0x000000000800c180                __muldf3
 .text          0x000000000800c480      0x390 ../../../../../tools/tools-lib/superH/libgcc.a(_addsub_df.o)
                0x000000000800c748                __subdf3
                0x000000000800c7b0                __adddf3
 .text          0x000000000800c810       0x50 ../../../../../tools/tools-lib/superH/libgcc.a(_sf_to_df.o)
                0x000000000800c810                __extendsfdf2
 .text          0x000000000800c860       0x70 ../../../../../tools/tools-lib/superH/libgcc.a(_df_to_sf.o)
                0x000000000800c860                __truncdfsf2
 .text          0x000000000800c8d0       0xa0 ../../../../../tools/tools-lib/superH/libgcc.a(_si_to_df.o)
                0x000000000800c8d0                __floatsidf
 .text          0x000000000800c970       0x70 ../../../../../tools/tools-lib/superH/libgcc.a(_lt_df.o)
                0x000000000800c970                __ltdf2
 .text          0x000000000800c9e0       0x70 ../../../../../tools/tools-lib/superH/libgcc.a(_ne_df.o)
                0x000000000800c9e0                __nedf2
 .text          0x000000000800ca50       0x70 ../../../../../tools/tools-lib/superH/libgcc.a(_eq_df.o)
                0x000000000800ca50                __eqdf2
 .text          0x000000000800cac0       0xa0 ../../../../../tools/tools-lib/superH/libgcc.a(_sdivsi3.o)
                0x000000000800cac0                __sdivsi3
 .text          0x000000000800cb60       0x70 ../../../../../tools/tools-lib/superH/libgcc.a(_udivsi3.o)
                0x000000000800cb82                __udivsi3
 .text          0x000000000800cbd0       0x30 ../../../../../tools/tools-lib/superH/libgcc.a(_mulsi3.o)
                0x000000000800cbd0                __mulsi3
 .text          0x000000000800cc00       0x90 ../../../../../tools/tools-lib/superH/libgcc.a(_lshiftrt.o)
                0x000000000800cc00                __lshrsi3
 .text          0x000000000800cc90       0x90 ../../../../../tools/tools-lib/superH/libgcc.a(_df_to_si.o)
                0x000000000800cc90                __fixdfsi
 .text          0x000000000800cd20       0x70 ../../../../../tools/tools-lib/superH/libgcc.a(_gt_df.o)
                0x000000000800cd20                __gtdf2
 .text          0x000000000800cd90       0x70 ../../../../../tools/tools-lib/superH/libgcc.a(_ge_df.o)
                0x000000000800cd90                __gedf2
 .text          0x000000000800ce00       0x60 ../../../../../tools/tools-lib/superH/libgcc.a(_ashiftrt.o)
                0x000000000800ce0c                __ashiftrt_r4_27
                0x000000000800ce40                __ashiftrt_r4_6
                0x000000000800ce30                __ashiftrt_r4_14
                0x000000000800ce22                __ashiftrt_r4_19
                0x000000000800ce3a                __ashiftrt_r4_9
                0x000000000800ce4e                __ashiftrt_r4_0
                0x000000000800ce00                __ashiftrt_r4_31
                0x000000000800ce0e                __ashiftrt_r4_26
                0x000000000800ce1c                __ashiftrt_r4_22
                0x000000000800ce28                __ashiftrt_r4_16
                0x000000000800ce34                __ashiftrt_r4_12
                0x000000000800ce08                __ashiftrt_r4_29
                0x000000000800ce26                __ashiftrt_r4_17
                0x000000000800ce06                __ashiftrt_r4_30
                0x000000000800ce42                __ashiftrt_r4_5
                0x000000000800ce3c                __ashiftrt_r4_8
                0x000000000800ce00                __ashiftrt_r4_32
                0x000000000800ce10                __ashiftrt_r4_25
                0x000000000800ce48                __ashiftrt_r4_2
                0x000000000800ce12                __ashiftrt_r4_24
                0x000000000800ce2e                __ashiftrt_r4_15
                0x000000000800ce38                __ashiftrt_r4_10
                0x000000000800ce4a                __ashiftrt_r4_1
                0x000000000800ce0a                __ashiftrt_r4_28
                0x000000000800ce20                __ashiftrt_r4_20
                0x000000000800ce3e                __ashiftrt_r4_7
                0x000000000800ce32                __ashiftrt_r4_13
                0x000000000800ce36                __ashiftrt_r4_11
                0x000000000800ce44                __ashiftrt_r4_4
                0x000000000800ce1a                __ashiftrt_r4_23
                0x000000000800ce24                __ashiftrt_r4_18
                0x000000000800ce1e                __ashiftrt_r4_21
                0x000000000800ce46                __ashiftrt_r4_3
 .text          0x000000000800ce60       0x90 ../../../../../tools/tools-lib/superH/libgcc.a(_ashiftrt_n.o)
                0x000000000800ce60                __ashrsi3
 .text          0x000000000800cef0      0x1f0 ../../../../../tools/tools-lib/superH/libgcc.a(_pack_df.o)
                0x000000000800cef0                __pack_d
 .text          0x000000000800d0e0       0xa0 ../../../../../tools/tools-lib/superH/libgcc.a(_clzsi2.o)
                0x000000000800d0e0                __clzsi2
 .text          0x000000000800d180       0x80 ../../../../../tools/tools-lib/superH/libgcc.a(_ashldi3.o)
                0x000000000800d180                __ashldi3
 .text          0x000000000800d200       0x80 ../../../../../tools/tools-lib/superH/libgcc.a(_lshrdi3.o)
                0x000000000800d200                __lshrdi3
 .text          0x000000000800d280      0x100 ../../../../../tools/tools-lib/superH/libgcc.a(_unpack_df.o)
                0x000000000800d280                __unpack_d
 .text          0x000000000800d380       0x20 ../../../../../tools/tools-lib/superH/libgcc.a(_thenan_df.o)
                0x000000000800d380                __thenan_df
 .text          0x000000000800d3a0       0xd0 ../../../../../tools/tools-lib/superH/libgcc.a(_muldi3.o)
                0x000000000800d3a0                __muldi3
 .text          0x000000000800d470       0xb0 ../../../../../tools/tools-lib/superH/libgcc.a(_unpack_sf.o)
                0x000000000800d470                __unpack_f
 .text          0x000000000800d520       0x40 ../../../../../tools/tools-lib/superH/libgcc.a(_make_df.o)
                0x000000000800d520                __make_dp
 .text          0x000000000800d560       0x30 ../../../../../tools/tools-lib/superH/libgcc.a(_make_sf.o)
                0x000000000800d560                __make_fp
 .text          0x000000000800d590       0xc0 ../../../../../tools/tools-lib/superH/libgcc.a(_fpcmp_parts_df.o)
                0x000000000800d590                __fpcmp_parts_d
 .text          0x000000000800d650      0x100 ../../../../../tools/tools-lib/superH/libgcc.a(_clz.o)
                0x000000000800d650                __clz_tab
 .text          0x000000000800d750      0x130 ../../../../../tools/tools-lib/superH/libgcc.a(_pack_sf.o)
                0x000000000800d750                __pack_f
 *(.strings)
                0x000000000800d880                _etext = .

.data           0x000000000800d880      0x710
                0x000000000800d880                _data = .
 *(.data)
 .data          0x000000000800d880      0x2f0 ../../../../../tools/tools-lib/superH/libc.a(impure.o)
                0x000000000800d880                _impure_ptr
 .data          0x000000000800db70       0x10 ../../../../../tools/tools-lib/superH/libc.a(locale.o)
                0x000000000800db70                __mb_cur_max
 .data          0x000000000800db80      0x410 ../../../../../tools/tools-lib/superH/libc.a(mallocr.o)
                0x000000000800db80                __malloc_av_
                0x000000000800df88                __malloc_trim_threshold
                0x000000000800df8c                __malloc_sbrk_base
                0x000000000800df90                _edata = .

.bss            0x000000000800df90       0x54
                0x000000000800df90                _bss = .
 *(.bss)
 .bss           0x000000000800df90       0x10 ../../../../../tools/tools-lib/superH/libc.a(syscalls.o)
 .bss           0x000000000800dfa0       0x40 ../../../../../tools/tools-lib/superH/libc.a(mallocr.o)
                0x000000000800dfa0                __malloc_top_pad
                0x000000000800dfac                __malloc_current_mallinfo
                0x000000000800dfa4                __malloc_max_sbrked_mem
                0x000000000800dfa8                __malloc_max_total_mem
 *(COMMON)
 COMMON         0x000000000800dfe0        0x4 ../../../../../tools/tools-lib/superH/libc.a(syscalls.o)
                0x000000000800dfe0                errno
                0x000000000800dfe4                _ebss = .
                0x000000000800dfe4                _end = .
LOAD init.o
LOAD fftmisc.o
LOAD fourierf.o
LOAD main.o
LOAD ../../../../../tools/tools-lib/superH/libc.a
LOAD ../../../../../tools/tools-lib/superH/libm.a
LOAD ../../../../../tools/tools-lib/superH/libgcc.a
LOAD ../../../../../sys/libOS/eOS/libeOS-superH.a
OUTPUT(fft coff-sh)

.stab           0x000000000800dfe4     0x10a0
 .stab          0x000000000800dfe4      0x660 fftmisc.o
 .stab          0x000000000800e644      0x5d0 fourierf.o
                                        0x894 (size before relaxing)
 .stab          0x000000000800ec14      0x468 main.o
                                        0x66c (size before relaxing)

.comment        0x000000000800f080      0xac0
 .comment       0x000000000800f080       0x20 fftmisc.o
 .comment       0x000000000800f0a0       0x20 fourierf.o
 .comment       0x000000000800f0c0       0x20 main.o
 .comment       0x000000000800f0e0       0x20 ../../../../../tools/tools-lib/superH/libc.a(errno.o)
 .comment       0x000000000800f100       0x20 ../../../../../tools/tools-lib/superH/libc.a(impure.o)
 .comment       0x000000000800f120       0x20 ../../../../../tools/tools-lib/superH/libc.a(fprintf.o)
 .comment       0x000000000800f140       0x20 ../../../../../tools/tools-lib/superH/libc.a(exit.o)
 .comment       0x000000000800f160       0x20 ../../../../../tools/tools-lib/superH/libc.a(printf.o)
 .comment       0x000000000800f180       0x20 ../../../../../tools/tools-lib/superH/libc.a(strcat.o)
 .comment       0x000000000800f1a0       0x20 ../../../../../tools/tools-lib/superH/libc.a(fopen.o)
 .comment       0x000000000800f1c0       0x20 ../../../../../tools/tools-lib/superH/libc.a(fclose.o)
 .comment       0x000000000800f1e0       0x20 ../../../../../tools/tools-lib/superH/libc.a(vfprintf.o)
 .comment       0x000000000800f200       0x20 ../../../../../tools/tools-lib/superH/libc.a(syscalls.o)
 .comment       0x000000000800f220       0x20 ../../../../../tools/tools-lib/superH/libc.a(flags.o)
 .comment       0x000000000800f240       0x20 ../../../../../tools/tools-lib/superH/libc.a(findfp.o)
 .comment       0x000000000800f260       0x20 ../../../../../tools/tools-lib/superH/libc.a(openr.o)
 .comment       0x000000000800f280       0x20 ../../../../../tools/tools-lib/superH/libc.a(stdio.o)
 .comment       0x000000000800f2a0       0x20 ../../../../../tools/tools-lib/superH/libc.a(fseek.o)
 .comment       0x000000000800f2c0       0x20 ../../../../../tools/tools-lib/superH/libc.a(fflush.o)
 .comment       0x000000000800f2e0       0x20 ../../../../../tools/tools-lib/superH/libc.a(freer.o)
 .comment       0x000000000800f300       0x20 ../../../../../tools/tools-lib/superH/libc.a(fvwrite.o)
 .comment       0x000000000800f320       0x20 ../../../../../tools/tools-lib/superH/libc.a(locale.o)
 .comment       0x000000000800f340       0x20 ../../../../../tools/tools-lib/superH/libc.a(wsetup.o)
 .comment       0x000000000800f360       0x20 ../../../../../tools/tools-lib/superH/libc.a(mbtowc_r.o)
 .comment       0x000000000800f380       0x20 ../../../../../tools/tools-lib/superH/libc.a(s_isinf.o)
 .comment       0x000000000800f3a0       0x20 ../../../../../tools/tools-lib/superH/libc.a(s_isnan.o)
 .comment       0x000000000800f3c0       0x20 ../../../../../tools/tools-lib/superH/libc.a(dtoa.o)
 .comment       0x000000000800f3e0       0x20 ../../../../../tools/tools-lib/superH/libc.a(memchr.o)
 .comment       0x000000000800f400       0x20 ../../../../../tools/tools-lib/superH/libc.a(strlen.o)
 .comment       0x000000000800f420       0x20 ../../../../../tools/tools-lib/superH/libc.a(sbrkr.o)
 .comment       0x000000000800f440       0x20 ../../../../../tools/tools-lib/superH/libc.a(abort.o)
 .comment       0x000000000800f460       0x20 ../../../../../tools/tools-lib/superH/libc.a(fwalk.o)
 .comment       0x000000000800f480       0x20 ../../../../../tools/tools-lib/superH/libc.a(mallocr.o)
 .comment       0x000000000800f4a0       0x20 ../../../../../tools/tools-lib/superH/libc.a(closer.o)
 .comment       0x000000000800f4c0       0x20 ../../../../../tools/tools-lib/superH/libc.a(lseekr.o)
 .comment       0x000000000800f4e0       0x20 ../../../../../tools/tools-lib/superH/libc.a(writer.o)
 .comment       0x000000000800f500       0x20 ../../../../../tools/tools-lib/superH/libc.a(readr.o)
 .comment       0x000000000800f520       0x20 ../../../../../tools/tools-lib/superH/libc.a(makebuf.o)
 .comment       0x000000000800f540       0x20 ../../../../../tools/tools-lib/superH/libc.a(fstatr.o)
 .comment       0x000000000800f560       0x20 ../../../../../tools/tools-lib/superH/libc.a(refill.o)
 .comment       0x000000000800f580       0x20 ../../../../../tools/tools-lib/superH/libc.a(mlock.o)
 .comment       0x000000000800f5a0       0x20 ../../../../../tools/tools-lib/superH/libc.a(memmove.o)
 .comment       0x000000000800f5c0       0x20 ../../../../../tools/tools-lib/superH/libc.a(mprec.o)
 .comment       0x000000000800f5e0       0x20 ../../../../../tools/tools-lib/superH/libc.a(signal.o)
 .comment       0x000000000800f600       0x20 ../../../../../tools/tools-lib/superH/libc.a(callocr.o)
 .comment       0x000000000800f620       0x20 ../../../../../tools/tools-lib/superH/libc.a(signalr.o)
 .comment       0x000000000800f640       0x20 ../../../../../tools/tools-lib/superH/libm.a(s_sin.o)
 .comment       0x000000000800f660       0x20 ../../../../../tools/tools-lib/superH/libm.a(s_cos.o)
 .comment       0x000000000800f680       0x20 ../../../../../tools/tools-lib/superH/libm.a(s_fabs.o)
 .comment       0x000000000800f6a0       0x20 ../../../../../tools/tools-lib/superH/libm.a(w_sqrt.o)
 .comment       0x000000000800f6c0       0x20 ../../../../../tools/tools-lib/superH/libm.a(e_rem_pio2.o)
 .comment       0x000000000800f6e0       0x20 ../../../../../tools/tools-lib/superH/libm.a(k_sin.o)
 .comment       0x000000000800f700       0x20 ../../../../../tools/tools-lib/superH/libm.a(k_cos.o)
 .comment       0x000000000800f720       0x20 ../../../../../tools/tools-lib/superH/libm.a(e_sqrt.o)
 .comment       0x000000000800f740       0x20 ../../../../../tools/tools-lib/superH/libm.a(s_lib_ver.o)
 .comment       0x000000000800f760       0x20 ../../../../../tools/tools-lib/superH/libm.a(s_matherr.o)
 .comment       0x000000000800f780       0x20 ../../../../../tools/tools-lib/superH/libm.a(k_rem_pio2.o)
 .comment       0x000000000800f7a0       0x20 ../../../../../tools/tools-lib/superH/libm.a(s_scalbn.o)
 .comment       0x000000000800f7c0       0x20 ../../../../../tools/tools-lib/superH/libm.a(s_floor.o)
 .comment       0x000000000800f7e0       0x20 ../../../../../tools/tools-lib/superH/libm.a(s_copysign.o)
 .comment       0x000000000800f800       0x20 ../../../../../tools/tools-lib/superH/libgcc.a(_usi_to_df.o)
 .comment       0x000000000800f820       0x20 ../../../../../tools/tools-lib/superH/libgcc.a(_div_df.o)
 .comment       0x000000000800f840       0x20 ../../../../../tools/tools-lib/superH/libgcc.a(_mul_df.o)
 .comment       0x000000000800f860       0x20 ../../../../../tools/tools-lib/superH/libgcc.a(_addsub_df.o)
 .comment       0x000000000800f880       0x20 ../../../../../tools/tools-lib/superH/libgcc.a(_sf_to_df.o)
 .comment       0x000000000800f8a0       0x20 ../../../../../tools/tools-lib/superH/libgcc.a(_df_to_sf.o)
 .comment       0x000000000800f8c0       0x20 ../../../../../tools/tools-lib/superH/libgcc.a(_si_to_df.o)
 .comment       0x000000000800f8e0       0x20 ../../../../../tools/tools-lib/superH/libgcc.a(_lt_df.o)
 .comment       0x000000000800f900       0x20 ../../../../../tools/tools-lib/superH/libgcc.a(_ne_df.o)
 .comment       0x000000000800f920       0x20 ../../../../../tools/tools-lib/superH/libgcc.a(_eq_df.o)
 .comment       0x000000000800f940       0x20 ../../../../../tools/tools-lib/superH/libgcc.a(_df_to_si.o)
 .comment       0x000000000800f960       0x20 ../../../../../tools/tools-lib/superH/libgcc.a(_gt_df.o)
 .comment       0x000000000800f980       0x20 ../../../../../tools/tools-lib/superH/libgcc.a(_ge_df.o)
 .comment       0x000000000800f9a0       0x20 ../../../../../tools/tools-lib/superH/libgcc.a(_pack_df.o)
 .comment       0x000000000800f9c0       0x20 ../../../../../tools/tools-lib/superH/libgcc.a(_clzsi2.o)
 .comment       0x000000000800f9e0       0x20 ../../../../../tools/tools-lib/superH/libgcc.a(_ashldi3.o)
 .comment       0x000000000800fa00       0x20 ../../../../../tools/tools-lib/superH/libgcc.a(_lshrdi3.o)
 .comment       0x000000000800fa20       0x20 ../../../../../tools/tools-lib/superH/libgcc.a(_unpack_df.o)
 .comment       0x000000000800fa40       0x20 ../../../../../tools/tools-lib/superH/libgcc.a(_thenan_df.o)
 .comment       0x000000000800fa60       0x20 ../../../../../tools/tools-lib/superH/libgcc.a(_muldi3.o)
 .comment       0x000000000800fa80       0x20 ../../../../../tools/tools-lib/superH/libgcc.a(_unpack_sf.o)
 .comment       0x000000000800faa0       0x20 ../../../../../tools/tools-lib/superH/libgcc.a(_make_df.o)
 .comment       0x000000000800fac0       0x20 ../../../../../tools/tools-lib/superH/libgcc.a(_make_sf.o)
 .comment       0x000000000800fae0       0x20 ../../../../../tools/tools-lib/superH/libgcc.a(_fpcmp_parts_df.o)
 .comment       0x000000000800fb00       0x20 ../../../../../tools/tools-lib/superH/libgcc.a(_clz.o)
 .comment       0x000000000800fb20       0x20 ../../../../../tools/tools-lib/superH/libgcc.a(_pack_sf.o)

.stabstr        0x000000000800fb40     0x1efb
 .stabstr       0x000000000800fb40     0x1efb fftmisc.o
